; Function Attrs: mustprogress uwtable
define noundef range(i32 1, 257) i32 @_ZN3net16ClampHttp2WeightEi(i32 noundef %0) local_unnamed_addr #0 personality ptr @__gxx_personality_v0 {
  %2 = alloca %"class.logging::LogMessage", align 8
  %3 = alloca %"class.logging::LogMessage", align 8
  %4 = icmp slt i32 %0, 1
  br i1 %4, label %5, label %13

5:                                                ; preds = %1
  %6 = tail call noundef zeroext i1 @_ZN7logging22ShouldCreateLogMessageEi(i32 noundef 2)
  br i1 %6, label %7, label %.critedge23

7:                                                ; preds = %5
  call void @llvm.lifetime.start.p0(i64 408, ptr nonnull %2) #22
  call void @_ZN7logging10LogMessageC1EPKcii(ptr noundef nonnull align 8 dereferenceable(404) %2, ptr noundef nonnull @.str, i32 noundef 26, i32 noundef 2)
  %8 = getelementptr inbounds nuw i8, ptr %2, i64 8
  %9 = invoke noundef nonnull align 8 dereferenceable(8) ptr @_ZSt16__ostream_insertIcSt11char_traitsIcEERSt13basic_ostreamIT_T0_ES6_PKS3_l(ptr noundef nonnull align 8 dereferenceable(8) %8, ptr noundef nonnull @.str.2, i64 noundef 16)
          to label %_ZStlsISt11char_traitsIcEERSt13basic_ostreamIcT_ES5_PKc.exit unwind label %11

_ZStlsISt11char_traitsIcEERSt13basic_ostreamIcT_ES5_PKc.exit: ; preds = %7
  %10 = invoke noundef nonnull align 8 dereferenceable(8) ptr @_ZNSolsEi(ptr noundef nonnull align 8 dereferenceable(8) %8, i32 noundef %0)
          to label %.critedge unwind label %11

.critedge:                                        ; preds = %_ZStlsISt11char_traitsIcEERSt13basic_ostreamIcT_ES5_PKc.exit
  call void @_ZN7logging10LogMessageD1Ev(ptr noundef nonnull align 8 dereferenceable(404) %2) #22
  call void @llvm.lifetime.end.p0(i64 408, ptr nonnull %2) #22
  br label %.critedge23

11:                                               ; preds = %7, %_ZStlsISt11char_traitsIcEERSt13basic_ostreamIcT_ES5_PKc.exit
  %12 = landingpad { ptr, i32 }
          cleanup
  call void @_ZN7logging10LogMessageD1Ev(ptr noundef nonnull align 8 dereferenceable(404) %2) #22
  call void @llvm.lifetime.end.p0(i64 408, ptr nonnull %2) #22
  br label %23

13:                                               ; preds = %1
  %14 = icmp samesign ugt i32 %0, 256
  br i1 %14, label %15, label %.critedge23

15:                                               ; preds = %13
  %16 = tail call noundef zeroext i1 @_ZN7logging22ShouldCreateLogMessageEi(i32 noundef 2)
  br i1 %16, label %17, label %.critedge23

17:                                               ; preds = %15
  call void @llvm.lifetime.start.p0(i64 408, ptr nonnull %3) #22
  call void @_ZN7logging10LogMessageC1EPKcii(ptr noundef nonnull align 8 dereferenceable(404) %3, ptr noundef nonnull @.str, i32 noundef 30, i32 noundef 2)
  %18 = getelementptr inbounds nuw i8, ptr %3, i64 8
  %19 = invoke noundef nonnull align 8 dereferenceable(8) ptr @_ZSt16__ostream_insertIcSt11char_traitsIcEERSt13basic_ostreamIT_T0_ES6_PKS3_l(ptr noundef nonnull align 8 dereferenceable(8) %18, ptr noundef nonnull @.str.2, i64 noundef 16)
          to label %_ZStlsISt11char_traitsIcEERSt13basic_ostreamIcT_ES5_PKc.exit27 unwind label %21

_ZStlsISt11char_traitsIcEERSt13basic_ostreamIcT_ES5_PKc.exit27: ; preds = %17
  %20 = invoke noundef nonnull align 8 dereferenceable(8) ptr @_ZNSolsEi(ptr noundef nonnull align 8 dereferenceable(8) %18, i32 noundef %0)
          to label %.critedge25 unwind label %21

.critedge25:                                      ; preds = %_ZStlsISt11char_traitsIcEERSt13basic_ostreamIcT_ES5_PKc.exit27
  call void @_ZN7logging10LogMessageD1Ev(ptr noundef nonnull align 8 dereferenceable(404) %3) #22
  call void @llvm.lifetime.end.p0(i64 408, ptr nonnull %3) #22
  br label %.critedge23

21:                                               ; preds = %17, %_ZStlsISt11char_traitsIcEERSt13basic_ostreamIcT_ES5_PKc.exit27
  %22 = landingpad { ptr, i32 }
          cleanup
  call void @_ZN7logging10LogMessageD1Ev(ptr noundef nonnull align 8 dereferenceable(404) %3) #22
  call void @llvm.lifetime.end.p0(i64 408, ptr nonnull %3) #22
  br label %23

.critedge23:                                      ; preds = %.critedge25, %15, %.critedge, %5, %13
  %.020 = phi i32 [ %0, %13 ], [ 1, %5 ], [ 1, %.critedge ], [ 256, %15 ], [ 256, %.critedge25 ]
  ret i32 %.020

23:                                               ; preds = %21, %11
  %.pn = phi { ptr, i32 } [ %12, %11 ], [ %22, %21 ]
  resume { ptr, i32 } %.pn
}